target datalayout = "e-m:e-p270:32:32-p271:32:32-p272:64:64-i64:64-i128:128-f80:128-n8:16:32:64-S128"
target triple = "x86_64-pc-linux-gnu"

%union.LWLockPadded = type { %struct.LWLock, [112 x i8] }
%struct.LWLock = type { i16, %struct.pg_atomic_uint32, %struct.proclist_head }
%struct.pg_atomic_uint32 = type { i32 }
%struct.proclist_head = type { i32, i32 }
%struct.dlist_head = type { %struct.dlist_node }
%struct.dlist_node = type { ptr, ptr }
%struct.SERIALIZABLEXACT = type { %struct.VirtualTransactionId, i64, i64, %union.anon, %struct.dlist_head, %struct.dlist_head, %struct.dlist_head, %struct.dlist_node, %struct.dlist_node, %struct.LWLock, %struct.dlist_head, i32, i32, i32, i32, i32, i32 }
%struct.VirtualTransactionId = type { i32, i32 }
%union.anon = type { i64 }
%struct.SERIALIZABLEXIDTAG = type { i32 }
%struct.SERIALIZABLEXID = type { %struct.SERIALIZABLEXIDTAG, ptr }

@MainLWLockArray = external global ptr, align 8
@SerializableXidHash = internal global ptr null, align 8
@MySerializableXact = internal global ptr null, align 8

; Function Attrs: nounwind uwtable
define dso_local void @RegisterPredicateLockingXid(i32 noundef %0) #0 {
  %2 = alloca i32, align 4
  %3 = alloca %struct.SERIALIZABLEXIDTAG, align 4
  %4 = alloca ptr, align 8
  %5 = alloca i8, align 1
  %6 = alloca i32, align 4
  store i32 %0, ptr %2, align 4
  call void @llvm.lifetime.start.p0(i64 4, ptr %3) #10
  call void @llvm.lifetime.start.p0(i64 8, ptr %4) #10
  call void @llvm.lifetime.start.p0(i64 1, ptr %5) #10
  %7 = load ptr, ptr @MySerializableXact, align 8
  %8 = icmp eq ptr %7, null
  br i1 %8, label %9, label %10

9:                                                ; preds = %1
  store i32 1, ptr %6, align 4
  br label %26

10:                                               ; preds = %1
  %11 = load ptr, ptr @MainLWLockArray, align 8
  %12 = getelementptr inbounds %union.LWLockPadded, ptr %11, i64 28
  %13 = call zeroext i1 @LWLockAcquire(ptr noundef %12, i32 noundef 0)
  %14 = load i32, ptr %2, align 4
  %15 = load ptr, ptr @MySerializableXact, align 8
  %16 = getelementptr inbounds nuw %struct.SERIALIZABLEXACT, ptr %15, i32 0, i32 11
  store i32 %14, ptr %16, align 8
  %17 = load i32, ptr %2, align 4
  %18 = getelementptr inbounds nuw %struct.SERIALIZABLEXIDTAG, ptr %3, i32 0, i32 0
  store i32 %17, ptr %18, align 4
  %19 = load ptr, ptr @SerializableXidHash, align 8
  %20 = call ptr @hash_search(ptr noundef %19, ptr noundef %3, i32 noundef 1, ptr noundef %5)
  store ptr %20, ptr %4, align 8
  %21 = load ptr, ptr @MySerializableXact, align 8
  %22 = load ptr, ptr %4, align 8
  %23 = getelementptr inbounds nuw %struct.SERIALIZABLEXID, ptr %22, i32 0, i32 1
  store ptr %21, ptr %23, align 8
  %24 = load ptr, ptr @MainLWLockArray, align 8
  %25 = getelementptr inbounds %union.LWLockPadded, ptr %24, i64 28
  call void @LWLockRelease(ptr noundef %25)
  store i32 0, ptr %6, align 4
  br label %26

26:                                               ; preds = %10, %9
  call void @llvm.lifetime.end.p0(i64 1, ptr %5) #10
  call void @llvm.lifetime.end.p0(i64 8, ptr %4) #10
  call void @llvm.lifetime.end.p0(i64 4, ptr %3) #10
  %27 = load i32, ptr %6, align 4
  switch i32 %27, label %29 [
    i32 0, label %28
    i32 1, label %28
  ]

28:                                               ; preds = %26, %26
  ret void

29:                                               ; preds = %26
  unreachable
}