; Function Attrs: nounwind uwtable
define dso_local void @RegisterPredicateLockingXid(i32 noundef %0) local_unnamed_addr #0 {
  %2 = alloca %struct.SERIALIZABLEXIDTAG, align 4
  %3 = alloca i8, align 1
  call void @llvm.lifetime.start.p0(i64 4, ptr nonnull %2) #12
  call void @llvm.lifetime.start.p0(i64 1, ptr nonnull %3) #12
  %4 = load ptr, ptr @MySerializableXact, align 8
  %5 = icmp eq ptr %4, null
  br i1 %5, label %18, label %6

6:                                                ; preds = %1
  %7 = load ptr, ptr @MainLWLockArray, align 8
  %8 = getelementptr inbounds nuw i8, ptr %7, i64 3584
  %9 = tail call zeroext i1 @LWLockAcquire(ptr noundef nonnull %8, i32 noundef 0) #12
  %10 = load ptr, ptr @MySerializableXact, align 8
  %11 = getelementptr inbounds nuw i8, ptr %10, i64 144
  store i32 %0, ptr %11, align 8
  store i32 %0, ptr %2, align 4
  %12 = load ptr, ptr @SerializableXidHash, align 8
  %13 = call ptr @hash_search(ptr noundef %12, ptr noundef nonnull %2, i32 noundef 1, ptr noundef nonnull %3) #12
  %14 = load ptr, ptr @MySerializableXact, align 8
  %15 = getelementptr inbounds nuw i8, ptr %13, i64 8
  store ptr %14, ptr %15, align 8
  %16 = load ptr, ptr @MainLWLockArray, align 8
  %17 = getelementptr inbounds nuw i8, ptr %16, i64 3584
  call void @LWLockRelease(ptr noundef nonnull %17) #12
  br label %18

18:                                               ; preds = %1, %6
  call void @llvm.lifetime.end.p0(i64 1, ptr nonnull %3) #12
  call void @llvm.lifetime.end.p0(i64 4, ptr nonnull %2) #12
  ret void
}